target datalayout = "e-m:e-p270:32:32-p271:32:32-p272:64:64-i64:64-i128:128-f80:128-n8:16:32:64-S128"
target triple = "x86_64-pc-linux-gnu"

%struct.expert_field = type { i32, i32 }

@hf_openflow_v4_match_type = internal global i32 0, align 4
@hf_openflow_v4_match_length = internal global i32 0, align 4
@hf_openflow_v4_match_pad = internal global i32 0, align 4
@ett_openflow_v4_match = internal global i32 0, align 4
@ei_openflow_v4_match_undecoded = internal global %struct.expert_field zeroinitializer, align 4
@.str.757 = private unnamed_addr constant [20 x i8] c"Unknown match body.\00", align 1
@.str.1121 = private unnamed_addr constant [6 x i8] c"Match\00", align 1
@.str.1122 = private unnamed_addr constant [34 x i8] c"Standard match body (deprecated).\00", align 1

; Function Attrs: null_pointer_is_valid sspstrong uwtable
define internal i32 @dissect_openflow_match_v4(ptr noundef %0, ptr noundef %1, ptr noundef %2, i32 noundef %3, i16 noundef zeroext %4) #0 {
  %6 = alloca ptr, align 8
  %7 = alloca ptr, align 8
  %8 = alloca ptr, align 8
  %9 = alloca i32, align 4
  %10 = alloca i16, align 2
  %11 = alloca ptr, align 8
  %12 = alloca ptr, align 8
  %13 = alloca i16, align 2
  %14 = alloca i16, align 2
  %15 = alloca i32, align 4
  %16 = alloca i16, align 2
  store ptr %0, ptr %6, align 8
  store ptr %1, ptr %7, align 8
  store ptr %2, ptr %8, align 8
  store i32 %3, ptr %9, align 4
  store i16 %4, ptr %10, align 2
  call void @llvm.lifetime.start.p0(i64 8, ptr %11) #5
  call void @llvm.lifetime.start.p0(i64 8, ptr %12) #5
  call void @llvm.lifetime.start.p0(i64 2, ptr %13) #5
  call void @llvm.lifetime.start.p0(i64 2, ptr %14) #5
  call void @llvm.lifetime.start.p0(i64 4, ptr %15) #5
  call void @llvm.lifetime.start.p0(i64 2, ptr %16) #5
  %17 = load ptr, ptr %8, align 8
  %18 = load ptr, ptr %6, align 8
  %19 = load i32, ptr %9, align 4
  %20 = load i32, ptr @ett_openflow_v4_match, align 4
  %21 = call ptr @proto_tree_add_subtree(ptr noundef %17, ptr noundef %18, i32 noundef %19, i32 noundef -1, i32 noundef %20, ptr noundef %11, ptr noundef @.str.1121)
  store ptr %21, ptr %12, align 8
  %22 = load ptr, ptr %6, align 8
  %23 = load i32, ptr %9, align 4
  %24 = call zeroext i16 @tvb_get_ntohs(ptr noundef %22, i32 noundef %23)
  store i16 %24, ptr %13, align 2
  %25 = load ptr, ptr %12, align 8
  %26 = load i32, ptr @hf_openflow_v4_match_type, align 4
  %27 = load ptr, ptr %6, align 8
  %28 = load i32, ptr %9, align 4
  %29 = call ptr @proto_tree_add_item(ptr noundef %25, i32 noundef %26, ptr noundef %27, i32 noundef %28, i32 noundef 2, i32 noundef 0)
  %30 = load i32, ptr %9, align 4
  %31 = add i32 %30, 2
  store i32 %31, ptr %9, align 4
  %32 = load ptr, ptr %6, align 8
  %33 = load i32, ptr %9, align 4
  %34 = call zeroext i16 @tvb_get_ntohs(ptr noundef %32, i32 noundef %33)
  store i16 %34, ptr %14, align 2
  %35 = load i16, ptr %14, align 2
  %36 = zext i16 %35 to i32
  %37 = add i32 %36, 7
  %38 = sdiv i32 %37, 8
  %39 = mul i32 %38, 8
  %40 = load i16, ptr %14, align 2
  %41 = zext i16 %40 to i32
  %42 = sub i32 %39, %41
  %43 = trunc i32 %42 to i16
  store i16 %43, ptr %16, align 2
  %44 = load ptr, ptr %11, align 8
  %45 = load i16, ptr %14, align 2
  %46 = zext i16 %45 to i32
  %47 = load i16, ptr %16, align 2
  %48 = zext i16 %47 to i32
  %49 = add i32 %46, %48
  call void @proto_item_set_len(ptr noundef %44, i32 noundef %49)
  %50 = load ptr, ptr %12, align 8
  %51 = load i32, ptr @hf_openflow_v4_match_length, align 4
  %52 = load ptr, ptr %6, align 8
  %53 = load i32, ptr %9, align 4
  %54 = call ptr @proto_tree_add_item(ptr noundef %50, i32 noundef %51, ptr noundef %52, i32 noundef %53, i32 noundef 2, i32 noundef 0)
  %55 = load i32, ptr %9, align 4
  %56 = add i32 %55, 2
  store i32 %56, ptr %9, align 4
  %57 = load i16, ptr %13, align 2
  %58 = zext i16 %57 to i32
  switch i32 %58, label %96 [
    i32 0, label %59
    i32 1, label %78
  ]

59:                                               ; preds = %5
  %60 = load ptr, ptr %12, align 8
  %61 = load ptr, ptr %7, align 8
  %62 = load ptr, ptr %6, align 8
  %63 = load i32, ptr %9, align 4
  %64 = load i16, ptr %14, align 2
  %65 = zext i16 %64 to i32
  %66 = sub i32 %65, 4
  %67 = call ptr (ptr, ptr, ptr, ptr, i32, i32, ptr, ...) @proto_tree_add_expert_format(ptr noundef %60, ptr noundef %61, ptr noundef @ei_openflow_v4_match_undecoded, ptr noundef %62, i32 noundef %63, i32 noundef %66, ptr noundef @.str.1122)
  %68 = load i16, ptr %14, align 2
  %69 = zext i16 %68 to i32
  %70 = icmp sgt i32 %69, 4
  br i1 %70, label %71, label %77

71:                                               ; preds = %59
  %72 = load i16, ptr %14, align 2
  %73 = zext i16 %72 to i32
  %74 = sub i32 %73, 4
  %75 = load i32, ptr %9, align 4
  %76 = add i32 %75, %74
  store i32 %76, ptr %9, align 4
  br label %77

77:                                               ; preds = %71, %59
  br label %115

78:                                               ; preds = %5
  %79 = load i32, ptr %9, align 4
  %80 = load i16, ptr %14, align 2
  %81 = zext i16 %80 to i32
  %82 = add i32 %79, %81
  %83 = sub i32 %82, 4
  store i32 %83, ptr %15, align 4
  br label %84

84:                                               ; preds = %88, %78
  %85 = load i32, ptr %9, align 4
  %86 = load i32, ptr %15, align 4
  %87 = icmp slt i32 %85, %86
  br i1 %87, label %88, label %95

88:                                               ; preds = %84
  %89 = load ptr, ptr %6, align 8
  %90 = load ptr, ptr %7, align 8
  %91 = load ptr, ptr %12, align 8
  %92 = load i32, ptr %9, align 4
  %93 = load i16, ptr %10, align 2
  %94 = call i32 @dissect_openflow_oxm_v4(ptr noundef %89, ptr noundef %90, ptr noundef %91, i32 noundef %92, i16 noundef zeroext %93)
  store i32 %94, ptr %9, align 4
  br label %84, !llvm.loop !26

95:                                               ; preds = %84
  br label %115

96:                                               ; preds = %5
  %97 = load ptr, ptr %12, align 8
  %98 = load ptr, ptr %7, align 8
  %99 = load ptr, ptr %6, align 8
  %100 = load i32, ptr %9, align 4
  %101 = load i16, ptr %14, align 2
  %102 = zext i16 %101 to i32
  %103 = sub i32 %102, 4
  %104 = call ptr (ptr, ptr, ptr, ptr, i32, i32, ptr, ...) @proto_tree_add_expert_format(ptr noundef %97, ptr noundef %98, ptr noundef @ei_openflow_v4_match_undecoded, ptr noundef %99, i32 noundef %100, i32 noundef %103, ptr noundef @.str.757)
  %105 = load i16, ptr %14, align 2
  %106 = zext i16 %105 to i32
  %107 = icmp sgt i32 %106, 4
  br i1 %107, label %108, label %114

108:                                              ; preds = %96
  %109 = load i16, ptr %14, align 2
  %110 = zext i16 %109 to i32
  %111 = sub i32 %110, 4
  %112 = load i32, ptr %9, align 4
  %113 = add i32 %112, %111
  store i32 %113, ptr %9, align 4
  br label %114

114:                                              ; preds = %108, %96
  br label %115

115:                                              ; preds = %114, %95, %77
  %116 = load i16, ptr %16, align 2
  %117 = zext i16 %116 to i32
  %118 = icmp sgt i32 %117, 0
  br i1 %118, label %119, label %131

119:                                              ; preds = %115
  %120 = load ptr, ptr %12, align 8
  %121 = load i32, ptr @hf_openflow_v4_match_pad, align 4
  %122 = load ptr, ptr %6, align 8
  %123 = load i32, ptr %9, align 4
  %124 = load i16, ptr %16, align 2
  %125 = zext i16 %124 to i32
  %126 = call ptr @proto_tree_add_item(ptr noundef %120, i32 noundef %121, ptr noundef %122, i32 noundef %123, i32 noundef %125, i32 noundef 0)
  %127 = load i16, ptr %16, align 2
  %128 = zext i16 %127 to i32
  %129 = load i32, ptr %9, align 4
  %130 = add i32 %129, %128
  store i32 %130, ptr %9, align 4
  br label %131

131:                                              ; preds = %119, %115
  %132 = load i32, ptr %9, align 4
  call void @llvm.lifetime.end.p0(i64 2, ptr %16) #5
  call void @llvm.lifetime.end.p0(i64 4, ptr %15) #5
  call void @llvm.lifetime.end.p0(i64 2, ptr %14) #5
  call void @llvm.lifetime.end.p0(i64 2, ptr %13) #5
  call void @llvm.lifetime.end.p0(i64 8, ptr %12) #5
  call void @llvm.lifetime.end.p0(i64 8, ptr %11) #5
  ret i32 %132
}