; Function Attrs: null_pointer_is_valid sspstrong uwtable
define internal fastcc i32 @dissect_openflow_match_v4(ptr noundef %0, ptr noundef %1, ptr noundef %2, i32 noundef %3) unnamed_addr #0 {
  %5 = alloca ptr, align 8
  call void @llvm.lifetime.start.p0(i64 8, ptr nonnull %5) #4
  %6 = load i32, ptr @ett_openflow_v4_match, align 4
  %7 = call ptr @proto_tree_add_subtree(ptr noundef %2, ptr noundef %0, i32 noundef %3, i32 noundef -1, i32 noundef %6, ptr noundef nonnull %5, ptr noundef nonnull @.str.1121)
  %8 = call zeroext i16 @tvb_get_ntohs(ptr noundef %0, i32 noundef %3)
  %9 = load i32, ptr @hf_openflow_v4_match_type, align 4
  %10 = call ptr @proto_tree_add_item(ptr noundef %7, i32 noundef %9, ptr noundef %0, i32 noundef %3, i32 noundef 2, i32 noundef 0)
  %11 = add i32 %3, 2
  %12 = call zeroext i16 @tvb_get_ntohs(ptr noundef %0, i32 noundef %11)
  %13 = zext i16 %12 to i32
  %14 = add i16 %12, 7
  %15 = and i16 %14, -8
  %16 = sub i16 %15, %12
  %17 = load ptr, ptr %5, align 8
  %18 = zext i16 %16 to i32
  %19 = add nuw nsw i32 %18, %13
  call void @proto_item_set_len(ptr noundef %17, i32 noundef %19)
  %20 = load i32, ptr @hf_openflow_v4_match_length, align 4
  %21 = call ptr @proto_tree_add_item(ptr noundef %7, i32 noundef %20, ptr noundef %0, i32 noundef %11, i32 noundef 2, i32 noundef 0)
  %22 = add i32 %3, 4
  switch i16 %8, label %28 [
    i16 0, label %.loopexit.sink.split
    i16 1, label %23
  ]

23:                                               ; preds = %4
  %24 = add i32 %3, %13
  %25 = icmp slt i32 %22, %24
  br i1 %25, label %.lr.ph, label %.loopexit

.lr.ph:                                           ; preds = %23, %.lr.ph
  %.154 = phi i32 [ %26, %.lr.ph ], [ %22, %23 ]
  %26 = call fastcc i32 @dissect_openflow_oxm_v4(ptr noundef %0, ptr noundef %1, ptr noundef %7, i32 noundef %.154)
  %27 = icmp slt i32 %26, %24
  br i1 %27, label %.lr.ph, label %.loopexit, !llvm.loop !30

28:                                               ; preds = %4
  br label %.loopexit.sink.split

.loopexit.sink.split:                             ; preds = %4, %28
  %.str.757.sink = phi ptr [ @.str.757, %28 ], [ @.str.1122, %4 ]
  %29 = add nsw i32 %13, -4
  %30 = call ptr (ptr, ptr, ptr, ptr, i32, i32, ptr, ...) @proto_tree_add_expert_format(ptr noundef %7, ptr noundef %1, ptr noundef nonnull @ei_openflow_v4_match_undecoded, ptr noundef %0, i32 noundef %22, i32 noundef %29, ptr noundef nonnull %.str.757.sink)
  %31 = icmp ugt i16 %12, 4
  %32 = add i32 %3, %13
  %spec.select53 = select i1 %31, i32 %32, i32 %22
  br label %.loopexit

.loopexit:                                        ; preds = %.lr.ph, %.loopexit.sink.split, %23
  %.0 = phi i32 [ %22, %23 ], [ %spec.select53, %.loopexit.sink.split ], [ %26, %.lr.ph ]
  %.not = icmp eq i16 %15, %12
  br i1 %.not, label %37, label %33

33:                                               ; preds = %.loopexit
  %34 = load i32, ptr @hf_openflow_v4_match_pad, align 4
  %35 = call ptr @proto_tree_add_item(ptr noundef %7, i32 noundef %34, ptr noundef %0, i32 noundef %.0, i32 noundef %18, i32 noundef 0)
  %36 = add i32 %.0, %18
  br label %37

37:                                               ; preds = %33, %.loopexit
  %.2 = phi i32 [ %36, %33 ], [ %.0, %.loopexit ]
  call void @llvm.lifetime.end.p0(i64 8, ptr nonnull %5) #4
  ret i32 %.2
}